target datalayout = "e-m:e-p270:32:32-p271:32:32-p272:64:64-i64:64-i128:128-f80:128-n8:16:32:64-S128"
target triple = "x86_64-unknown-linux-gnu"

%"class.std::__cxx11::basic_string" = type { %"struct.std::__cxx11::basic_string<char>::_Alloc_hider", i64, %union.anon }
%"struct.std::__cxx11::basic_string<char>::_Alloc_hider" = type { ptr }
%union.anon = type { i64, [8 x i8] }
%"struct.std::_Rb_tree_header" = type { %"struct.std::_Rb_tree_node_base", i64 }
%"struct.std::_Rb_tree_node_base" = type { i32, ptr, ptr, ptr }
%"struct.std::__detail::_Hash_node_base" = type { ptr }
%"struct.std::__detail::_Prime_rehash_policy" = type { float, i64 }
%"class.rocksdb::BackupStatistics" = type { i32, i32 }
%"struct.rocksdb::BackupEngineOptions" = type <{ %"class.std::__cxx11::basic_string", ptr, i8, [7 x i8], ptr, i8, i8, i8, [5 x i8], i64, %"class.std::shared_ptr", i64, %"class.std::shared_ptr", i8, [3 x i8], i32, i64, i32, i32, i32, i8, [3 x i8] }>
%"class.std::shared_ptr" = type { %"class.std::__shared_ptr" }
%"class.std::__shared_ptr" = type { ptr, %"class.std::__shared_count" }
%"class.std::__shared_count" = type { ptr }
%"class.rocksdb::IOStatus" = type { %"class.rocksdb::Status" }
%"class.rocksdb::Status" = type { i8, i8, i8, i8, i8, i8, %"class.std::unique_ptr" }
%"class.std::unique_ptr" = type { %"struct.std::__uniq_ptr_data" }
%"struct.std::__uniq_ptr_data" = type { %"class.std::__uniq_ptr_impl" }
%"class.std::__uniq_ptr_impl" = type { %"class.std::tuple" }
%"class.std::tuple" = type { %"struct.std::_Tuple_impl" }
%"struct.std::_Tuple_impl" = type { %"struct.std::_Head_base.4" }
%"struct.std::_Head_base.4" = type { ptr }
%"class.rocksdb::(anonymous namespace)::BackupEngineImplThreadSafe" = type { %"class.rocksdb::BackupEngine", %"class.rocksdb::BackupEngineReadOnly", %"class.rocksdb::port::RWMutex", %"class.rocksdb::(anonymous namespace)::BackupEngineImpl" }
%"class.rocksdb::BackupEngine" = type { %"class.rocksdb::BackupEngineReadOnlyBase", %"class.rocksdb::BackupEngineAppendOnlyBase" }
%"class.rocksdb::BackupEngineReadOnlyBase" = type { ptr }
%"class.rocksdb::BackupEngineAppendOnlyBase" = type { ptr }
%"class.rocksdb::BackupEngineReadOnly" = type { %"class.rocksdb::BackupEngineReadOnlyBase" }
%"class.rocksdb::port::RWMutex" = type { %union.pthread_rwlock_t }
%union.pthread_rwlock_t = type { %struct.__pthread_rwlock_arch_t }
%struct.__pthread_rwlock_arch_t = type { i32, i32, i32, i32, i32, i32, i32, i32, i8, [7 x i8], i64, i32 }
%"class.rocksdb::(anonymous namespace)::BackupEngineImpl" = type { i8, %"class.std::mutex", %"class.rocksdb::channel", %"class.std::vector.16", %"struct.std::atomic", i8, i32, i32, %"class.std::map", %"class.std::map.24", %"class.std::unordered_map", %"struct.std::atomic.35", [7 x i8], %"struct.rocksdb::BackupEngineOptions", ptr, ptr, %"class.std::unique_ptr.36", %"class.std::unique_ptr.36", %"class.std::unique_ptr.36", %"class.std::unique_ptr.36", i8, %"class.rocksdb::BackupStatistics", %"class.std::unordered_set", %"class.std::shared_ptr.57", %"class.std::shared_ptr.57", %"struct.rocksdb::IOOptions", %"class.std::unique_ptr.74" }
%"class.std::mutex" = type { %"class.std::__mutex_base" }
%"class.std::__mutex_base" = type { %union.pthread_mutex_t }
%union.pthread_mutex_t = type { %struct.__pthread_mutex_s }
%struct.__pthread_mutex_s = type { i32, i32, i32, i32, i32, i16, i16, %struct.__pthread_internal_list }
%struct.__pthread_internal_list = type { ptr, ptr }
%"class.rocksdb::channel" = type <{ %"class.std::condition_variable", %"class.std::mutex", %"class.std::queue", i8, [7 x i8] }>
%"class.std::condition_variable" = type { %"class.std::__condvar" }
%"class.std::__condvar" = type { %union.pthread_cond_t }
%union.pthread_cond_t = type { %struct.__pthread_cond_s }
%struct.__pthread_cond_s = type { %union.__atomic_wide_counter, %union.__atomic_wide_counter, [2 x i32], [2 x i32], i32, i32, [2 x i32] }
%union.__atomic_wide_counter = type { i64 }
%"class.std::queue" = type { %"class.std::deque" }
%"class.std::deque" = type { %"class.std::_Deque_base" }
%"class.std::_Deque_base" = type { %"struct.std::_Deque_base<rocksdb::(anonymous namespace)::BackupEngineImpl::CopyOrCreateWorkItem, std::allocator<rocksdb::(anonymous namespace)::BackupEngineImpl::CopyOrCreateWorkItem>>::_Deque_impl" }
%"struct.std::_Deque_base<rocksdb::(anonymous namespace)::BackupEngineImpl::CopyOrCreateWorkItem, std::allocator<rocksdb::(anonymous namespace)::BackupEngineImpl::CopyOrCreateWorkItem>>::_Deque_impl" = type { %"struct.std::_Deque_base<rocksdb::(anonymous namespace)::BackupEngineImpl::CopyOrCreateWorkItem, std::allocator<rocksdb::(anonymous namespace)::BackupEngineImpl::CopyOrCreateWorkItem>>::_Deque_impl_data" }
%"struct.std::_Deque_base<rocksdb::(anonymous namespace)::BackupEngineImpl::CopyOrCreateWorkItem, std::allocator<rocksdb::(anonymous namespace)::BackupEngineImpl::CopyOrCreateWorkItem>>::_Deque_impl_data" = type { ptr, i64, %"struct.std::_Deque_iterator", %"struct.std::_Deque_iterator" }
%"struct.std::_Deque_iterator" = type { ptr, ptr, ptr, ptr }
%"class.std::vector.16" = type { %"struct.std::_Vector_base.17" }
%"struct.std::_Vector_base.17" = type { %"struct.std::_Vector_base<std::thread, std::allocator<std::thread>>::_Vector_impl" }
%"struct.std::_Vector_base<std::thread, std::allocator<std::thread>>::_Vector_impl" = type { %"struct.std::_Vector_base<std::thread, std::allocator<std::thread>>::_Vector_impl_data" }
%"struct.std::_Vector_base<std::thread, std::allocator<std::thread>>::_Vector_impl_data" = type { ptr, ptr, ptr }
%"struct.std::atomic" = type { i32 }
%"class.std::map" = type { %"class.std::_Rb_tree" }
%"class.std::_Rb_tree" = type { %"struct.std::_Rb_tree<unsigned int, std::pair<const unsigned int, std::unique_ptr<rocksdb::(anonymous namespace)::BackupEngineImpl::BackupMeta>>, std::_Select1st<std::pair<const unsigned int, std::unique_ptr<rocksdb::(anonymous namespace)::BackupEngineImpl::BackupMeta>>>, std::less<unsigned int>>::_Rb_tree_impl" }
%"struct.std::_Rb_tree<unsigned int, std::pair<const unsigned int, std::unique_ptr<rocksdb::(anonymous namespace)::BackupEngineImpl::BackupMeta>>, std::_Select1st<std::pair<const unsigned int, std::unique_ptr<rocksdb::(anonymous namespace)::BackupEngineImpl::BackupMeta>>>, std::less<unsigned int>>::_Rb_tree_impl" = type { %"struct.std::_Rb_tree_key_compare", %"struct.std::_Rb_tree_header" }
%"struct.std::_Rb_tree_key_compare" = type { %"struct.std::less" }
%"struct.std::less" = type { i8 }
%"class.std::map.24" = type { %"class.std::_Rb_tree.25" }
%"class.std::_Rb_tree.25" = type { %"struct.std::_Rb_tree<unsigned int, std::pair<const unsigned int, std::pair<rocksdb::IOStatus, std::unique_ptr<rocksdb::(anonymous namespace)::BackupEngineImpl::BackupMeta>>>, std::_Select1st<std::pair<const unsigned int, std::pair<rocksdb::IOStatus, std::unique_ptr<rocksdb::(anonymous namespace)::BackupEngineImpl::BackupMeta>>>>, std::less<unsigned int>>::_Rb_tree_impl" }
%"struct.std::_Rb_tree<unsigned int, std::pair<const unsigned int, std::pair<rocksdb::IOStatus, std::unique_ptr<rocksdb::(anonymous namespace)::BackupEngineImpl::BackupMeta>>>, std::_Select1st<std::pair<const unsigned int, std::pair<rocksdb::IOStatus, std::unique_ptr<rocksdb::(anonymous namespace)::BackupEngineImpl::BackupMeta>>>>, std::less<unsigned int>>::_Rb_tree_impl" = type { %"struct.std::_Rb_tree_key_compare", %"struct.std::_Rb_tree_header" }
%"class.std::unordered_map" = type { %"class.std::_Hashtable" }
%"class.std::_Hashtable" = type { ptr, i64, %"struct.std::__detail::_Hash_node_base", i64, %"struct.std::__detail::_Prime_rehash_policy", ptr }
%"struct.std::atomic.35" = type { %"struct.std::__atomic_base" }
%"struct.std::__atomic_base" = type { i8 }
%"class.std::unique_ptr.36" = type { %"struct.std::__uniq_ptr_data.37" }
%"struct.std::__uniq_ptr_data.37" = type { %"class.std::__uniq_ptr_impl.38" }
%"class.std::__uniq_ptr_impl.38" = type { %"class.std::tuple.39" }
%"class.std::tuple.39" = type { %"struct.std::_Tuple_impl.40" }
%"struct.std::_Tuple_impl.40" = type { %"struct.std::_Head_base.43" }
%"struct.std::_Head_base.43" = type { ptr }
%"class.std::unordered_set" = type { %"class.std::_Hashtable.44" }
%"class.std::_Hashtable.44" = type { ptr, i64, %"struct.std::__detail::_Hash_node_base", i64, %"struct.std::__detail::_Prime_rehash_policy", ptr }
%"class.std::shared_ptr.57" = type { %"class.std::__shared_ptr.58" }
%"class.std::__shared_ptr.58" = type { ptr, %"class.std::__shared_count" }
%"struct.rocksdb::IOOptions" = type <{ %"class.std::chrono::duration", i8, [3 x i8], i32, i8, [7 x i8], %"class.std::unordered_map.60", i8, i8, i8, [5 x i8] }>
%"class.std::chrono::duration" = type { i64 }
%"class.std::unordered_map.60" = type { %"class.std::_Hashtable.61" }
%"class.std::_Hashtable.61" = type { ptr, i64, %"struct.std::__detail::_Hash_node_base", i64, %"struct.std::__detail::_Prime_rehash_policy", ptr }
%"class.std::unique_ptr.74" = type { %"struct.std::__uniq_ptr_data.75" }
%"struct.std::__uniq_ptr_data.75" = type { %"class.std::__uniq_ptr_impl.76" }
%"class.std::__uniq_ptr_impl.76" = type { %"class.std::tuple.77" }
%"class.std::tuple.77" = type { %"struct.std::_Tuple_impl.78" }
%"struct.std::_Tuple_impl.78" = type { %"struct.std::_Head_base.81" }
%"struct.std::_Head_base.81" = type { ptr }
%"class.rocksdb::WriteLock" = type { ptr }

; Function Attrs: mustprogress nounwind uwtable
define linkonce_odr void @_ZN7rocksdb9WriteLockD2Ev(ptr noundef nonnull align 8 dereferenceable(8) %this) unnamed_addr #1 comdat align 2 personality ptr @__gxx_personality_v0 {
entry:
  %this.addr = alloca ptr, align 8
  store ptr %this, ptr %this.addr, align 8
  %this1 = load ptr, ptr %this.addr, align 8
  %mu_ = getelementptr inbounds %"class.rocksdb::WriteLock", ptr %this1, i32 0, i32 0
  %0 = load ptr, ptr %mu_, align 8
  invoke void @_ZN7rocksdb4port7RWMutex11WriteUnlockEv(ptr noundef nonnull align 8 dereferenceable(56) %0)
          to label %invoke.cont unwind label %terminate.lpad

invoke.cont:                                      ; preds = %entry
  ret void

terminate.lpad:                                   ; preds = %entry
  %1 = landingpad { ptr, i32 }
          catch ptr null
  %2 = extractvalue { ptr, i32 } %1, 0
  call void @__clang_call_terminate(ptr %2) #19
  unreachable
}

; Function Attrs: mustprogress uwtable
define linkonce_odr void @_ZN7rocksdb9WriteLockC2EPNS_4port7RWMutexE(ptr noundef nonnull align 8 dereferenceable(8) %this, ptr noundef %mu) unnamed_addr #0 comdat align 2 {
entry:
  %this.addr = alloca ptr, align 8
  %mu.addr = alloca ptr, align 8
  store ptr %this, ptr %this.addr, align 8
  store ptr %mu, ptr %mu.addr, align 8
  %this1 = load ptr, ptr %this.addr, align 8
  %mu_ = getelementptr inbounds %"class.rocksdb::WriteLock", ptr %this1, i32 0, i32 0
  %0 = load ptr, ptr %mu.addr, align 8
  store ptr %0, ptr %mu_, align 8
  %mu_2 = getelementptr inbounds %"class.rocksdb::WriteLock", ptr %this1, i32 0, i32 0
  %1 = load ptr, ptr %mu_2, align 8
  call void @_ZN7rocksdb4port7RWMutex9WriteLockEv(ptr noundef nonnull align 8 dereferenceable(56) %1)
  ret void
}

; Function Attrs: mustprogress uwtable
define internal void @_ZN7rocksdb12_GLOBAL__N_126BackupEngineImplThreadSafe27CreateNewBackupWithMetadataERKNS_19CreateBackupOptionsEPNS_2DBERKNSt7__cxx1112basic_stringIcSt11char_traitsIcESaIcEEEPj(ptr noalias sret(%"class.rocksdb::IOStatus") align 8 %agg.result, ptr noundef nonnull align 8 dereferenceable(896) %this, ptr noundef nonnull align 8 dereferenceable(80) %options, ptr noundef %db, ptr noundef nonnull align 8 dereferenceable(32) %app_metadata, ptr noundef %new_backup_id) unnamed_addr #0 align 2 personality ptr @__gxx_personality_v0 {
entry:
  %result.ptr = alloca ptr, align 8
  %this.addr = alloca ptr, align 8
  %options.addr = alloca ptr, align 8
  %db.addr = alloca ptr, align 8
  %app_metadata.addr = alloca ptr, align 8
  %new_backup_id.addr = alloca ptr, align 8
  %lock = alloca %"class.rocksdb::WriteLock", align 8
  %exn.slot = alloca ptr, align 8
  %ehselector.slot = alloca i32, align 4
  store ptr %agg.result, ptr %result.ptr, align 8
  store ptr %this, ptr %this.addr, align 8
  store ptr %options, ptr %options.addr, align 8
  store ptr %db, ptr %db.addr, align 8
  store ptr %app_metadata, ptr %app_metadata.addr, align 8
  store ptr %new_backup_id, ptr %new_backup_id.addr, align 8
  %this1 = load ptr, ptr %this.addr, align 8
  %mutex_ = getelementptr inbounds %"class.rocksdb::(anonymous namespace)::BackupEngineImplThreadSafe", ptr %this1, i32 0, i32 2
  call void @_ZN7rocksdb9WriteLockC2EPNS_4port7RWMutexE(ptr noundef nonnull align 8 dereferenceable(8) %lock, ptr noundef %mutex_)
  %impl_ = getelementptr inbounds %"class.rocksdb::(anonymous namespace)::BackupEngineImplThreadSafe", ptr %this1, i32 0, i32 3
  %0 = load ptr, ptr %options.addr, align 8
  %1 = load ptr, ptr %db.addr, align 8
  %2 = load ptr, ptr %app_metadata.addr, align 8
  %3 = load ptr, ptr %new_backup_id.addr, align 8
  invoke void @_ZN7rocksdb12_GLOBAL__N_116BackupEngineImpl27CreateNewBackupWithMetadataERKNS_19CreateBackupOptionsEPNS_2DBERKNSt7__cxx1112basic_stringIcSt11char_traitsIcESaIcEEEPj(ptr sret(%"class.rocksdb::IOStatus") align 8 %agg.result, ptr noundef nonnull align 8 dereferenceable(816) %impl_, ptr noundef nonnull align 8 dereferenceable(80) %0, ptr noundef %1, ptr noundef nonnull align 8 dereferenceable(32) %2, ptr noundef %3)
          to label %invoke.cont unwind label %lpad

invoke.cont:                                      ; preds = %entry
  call void @_ZN7rocksdb9WriteLockD2Ev(ptr noundef nonnull align 8 dereferenceable(8) %lock) #3
  ret void

lpad:                                             ; preds = %entry
  %4 = landingpad { ptr, i32 }
          cleanup
  %5 = extractvalue { ptr, i32 } %4, 0
  store ptr %5, ptr %exn.slot, align 8
  %6 = extractvalue { ptr, i32 } %4, 1
  store i32 %6, ptr %ehselector.slot, align 4
  call void @_ZN7rocksdb9WriteLockD2Ev(ptr noundef nonnull align 8 dereferenceable(8) %lock) #3
  br label %eh.resume

eh.resume:                                        ; preds = %lpad
  %exn = load ptr, ptr %exn.slot, align 8
  %sel = load i32, ptr %ehselector.slot, align 4
  %lpad.val = insertvalue { ptr, i32 } poison, ptr %exn, 0
  %lpad.val2 = insertvalue { ptr, i32 } %lpad.val, i32 %sel, 1
  resume { ptr, i32 } %lpad.val2
}

; Function Attrs: uwtable
define internal void @_ZThn8_N7rocksdb12_GLOBAL__N_126BackupEngineImplThreadSafe27CreateNewBackupWithMetadataERKNS_19CreateBackupOptionsEPNS_2DBERKNSt7__cxx1112basic_stringIcSt11char_traitsIcESaIcEEEPj(ptr noalias sret(%"class.rocksdb::IOStatus") align 8 %agg.result, ptr noundef %this, ptr noundef nonnull align 8 dereferenceable(80) %options, ptr noundef %db, ptr noundef nonnull align 8 dereferenceable(32) %app_metadata, ptr noundef %new_backup_id) unnamed_addr #2 align 2 {
entry:
  %result.ptr = alloca ptr, align 8
  %this.addr = alloca ptr, align 8
  %options.addr = alloca ptr, align 8
  %db.addr = alloca ptr, align 8
  %app_metadata.addr = alloca ptr, align 8
  %new_backup_id.addr = alloca ptr, align 8
  store ptr %agg.result, ptr %result.ptr, align 8
  store ptr %this, ptr %this.addr, align 8
  store ptr %options, ptr %options.addr, align 8
  store ptr %db, ptr %db.addr, align 8
  store ptr %app_metadata, ptr %app_metadata.addr, align 8
  store ptr %new_backup_id, ptr %new_backup_id.addr, align 8
  %this1 = load ptr, ptr %this.addr, align 8
  %0 = getelementptr inbounds i8, ptr %this1, i64 -8
  %1 = load ptr, ptr %options.addr, align 8
  %2 = load ptr, ptr %db.addr, align 8
  %3 = load ptr, ptr %app_metadata.addr, align 8
  %4 = load ptr, ptr %new_backup_id.addr, align 8
  tail call void @_ZN7rocksdb12_GLOBAL__N_126BackupEngineImplThreadSafe27CreateNewBackupWithMetadataERKNS_19CreateBackupOptionsEPNS_2DBERKNSt7__cxx1112basic_stringIcSt11char_traitsIcESaIcEEEPj(ptr sret(%"class.rocksdb::IOStatus") align 8 %agg.result, ptr noundef nonnull align 8 dereferenceable(896) %0, ptr noundef nonnull align 8 dereferenceable(80) %1, ptr noundef %2, ptr noundef nonnull align 8 dereferenceable(32) %3, ptr noundef %4)
  ret void
}